; Function Attrs: mustprogress uwtable
define hidden void @_ZN5arith11arith_valueC2ERN3euf6solverE(ptr noundef nonnull align 8 dereferenceable(40) initializes((0, 16)) %0, ptr noundef nonnull align 8 dereferenceable(8456) %1) unnamed_addr #4 align 2 {
  store ptr %1, ptr %0, align 8, !tbaa !3
  %3 = getelementptr inbounds nuw i8, ptr %0, i64 8
  %4 = getelementptr inbounds nuw i8, ptr %1, i64 136
  %5 = load ptr, ptr %4, align 8, !tbaa !8
  store ptr %5, ptr %3, align 8, !tbaa !385
  %6 = getelementptr inbounds nuw i8, ptr %0, i64 16
  tail call void @_ZN10arith_utilC1ER11ast_manager(ptr noundef nonnull align 8 dereferenceable(16) %6, ptr noundef nonnull align 8 dereferenceable(976) %5)
  %7 = getelementptr inbounds nuw i8, ptr %0, i64 32
  store ptr null, ptr %7, align 8, !tbaa !386
  ret void
}